target datalayout = "e-m:e-p270:32:32-p271:32:32-p272:64:64-i64:64-f80:128-n8:16:32:64-S128"
target triple = "x86_64-pc-linux-gnu"

@.str = private unnamed_addr constant [3 x i8] c"%d\00", align 1
@.str.1 = private unnamed_addr constant [5 x i8] c"%s%s\00", align 1
@.str.2 = private unnamed_addr constant [2 x i8] c"\0A\00", align 1

; Function Attrs: noinline nounwind uwtable
define dso_local i32 @main() #0 {
  %1 = alloca i32, align 4
  %2 = alloca i32, align 4
  %3 = alloca i32, align 4
  %4 = alloca i32, align 4
  %5 = alloca i32, align 4
  %6 = alloca i32, align 4
  %7 = alloca [100 x i32], align 16
  %8 = alloca [100 x i32], align 16
  %9 = alloca [100 x i32], align 16
  %10 = alloca [100 x i8], align 16
  %11 = alloca [100 x i8], align 16
  store i32 0, i32* %1, align 4
  %12 = bitcast [100 x i32]* %8 to i8*
  call void @llvm.memset.p0i8.i64(i8* align 16 %12, i8 0, i64 400, i1 false)
  %13 = call i32 (i8*, ...) @__isoc99_scanf(i8* getelementptr inbounds ([3 x i8], [3 x i8]* @.str, i64 0, i64 0), i32* %3)
  store i32 1, i32* %4, align 4
  br label %14

14:                                               ; preds = %193, %0
  %15 = load i32, i32* %4, align 4
  %16 = load i32, i32* %3, align 4
  %17 = icmp sle i32 %15, %16
  br i1 %17, label %18, label %196

18:                                               ; preds = %14
  %19 = getelementptr inbounds [100 x i8], [100 x i8]* %10, i64 0, i64 0
  %20 = getelementptr inbounds [100 x i8], [100 x i8]* %11, i64 0, i64 0
  %21 = call i32 (i8*, ...) @__isoc99_scanf(i8* getelementptr inbounds ([5 x i8], [5 x i8]* @.str.1, i64 0, i64 0), i8* %19, i8* %20)
  store i32 0, i32* %2, align 4
  br label %22

22:                                               ; preds = %30, %18
  %23 = load i32, i32* %2, align 4
  %24 = sext i32 %23 to i64
  %25 = getelementptr inbounds [100 x i8], [100 x i8]* %10, i64 0, i64 %24
  %26 = load i8, i8* %25, align 1
  %27 = sext i8 %26 to i32
  %28 = icmp ne i32 %27, 0
  br i1 %28, label %29, label %33

29:                                               ; preds = %22
  br label %30

30:                                               ; preds = %29
  %31 = load i32, i32* %2, align 4
  %32 = add nsw i32 %31, 1
  store i32 %32, i32* %2, align 4
  br label %22

33:                                               ; preds = %22
  %34 = load i32, i32* %2, align 4
  store i32 %34, i32* %5, align 4
  store i32 1, i32* %2, align 4
  br label %35

35:                                               ; preds = %51, %33
  %36 = load i32, i32* %2, align 4
  %37 = load i32, i32* %5, align 4
  %38 = icmp sle i32 %36, %37
  br i1 %38, label %39, label %54

39:                                               ; preds = %35
  %40 = load i32, i32* %5, align 4
  %41 = load i32, i32* %2, align 4
  %42 = sub nsw i32 %40, %41
  %43 = sext i32 %42 to i64
  %44 = getelementptr inbounds [100 x i8], [100 x i8]* %10, i64 0, i64 %43
  %45 = load i8, i8* %44, align 1
  %46 = sext i8 %45 to i32
  %47 = sub nsw i32 %46, 48
  %48 = load i32, i32* %2, align 4
  %49 = sext i32 %48 to i64
  %50 = getelementptr inbounds [100 x i32], [100 x i32]* %7, i64 0, i64 %49
  store i32 %47, i32* %50, align 4
  br label %51

51:                                               ; preds = %39
  %52 = load i32, i32* %2, align 4
  %53 = add nsw i32 %52, 1
  store i32 %53, i32* %2, align 4
  br label %35

54:                                               ; preds = %35
  store i32 0, i32* %2, align 4
  br label %55

55:                                               ; preds = %63, %54
  %56 = load i32, i32* %2, align 4
  %57 = sext i32 %56 to i64
  %58 = getelementptr inbounds [100 x i8], [100 x i8]* %11, i64 0, i64 %57
  %59 = load i8, i8* %58, align 1
  %60 = sext i8 %59 to i32
  %61 = icmp ne i32 %60, 0
  br i1 %61, label %62, label %66

62:                                               ; preds = %55
  br label %63

63:                                               ; preds = %62
  %64 = load i32, i32* %2, align 4
  %65 = add nsw i32 %64, 1
  store i32 %65, i32* %2, align 4
  br label %55

66:                                               ; preds = %55
  %67 = load i32, i32* %2, align 4
  store i32 %67, i32* %6, align 4
  store i32 1, i32* %2, align 4
  br label %68

68:                                               ; preds = %84, %66
  %69 = load i32, i32* %2, align 4
  %70 = load i32, i32* %6, align 4
  %71 = icmp sle i32 %69, %70
  br i1 %71, label %72, label %87

72:                                               ; preds = %68
  %73 = load i32, i32* %6, align 4
  %74 = load i32, i32* %2, align 4
  %75 = sub nsw i32 %73, %74
  %76 = sext i32 %75 to i64
  %77 = getelementptr inbounds [100 x i8], [100 x i8]* %11, i64 0, i64 %76
  %78 = load i8, i8* %77, align 1
  %79 = sext i8 %78 to i32
  %80 = sub nsw i32 %79, 48
  %81 = load i32, i32* %2, align 4
  %82 = sext i32 %81 to i64
  %83 = getelementptr inbounds [100 x i32], [100 x i32]* %8, i64 0, i64 %82
  store i32 %80, i32* %83, align 4
  br label %84

84:                                               ; preds = %72
  %85 = load i32, i32* %2, align 4
  %86 = add nsw i32 %85, 1
  store i32 %86, i32* %2, align 4
  br label %68

87:                                               ; preds = %68
  store i32 1, i32* %2, align 4
  br label %88

88:                                               ; preds = %140, %87
  %89 = load i32, i32* %2, align 4
  %90 = load i32, i32* %5, align 4
  %91 = icmp sle i32 %89, %90
  br i1 %91, label %92, label %143

92:                                               ; preds = %88
  %93 = load i32, i32* %2, align 4
  %94 = sext i32 %93 to i64
  %95 = getelementptr inbounds [100 x i32], [100 x i32]* %7, i64 0, i64 %94
  %96 = load i32, i32* %95, align 4
  %97 = load i32, i32* %2, align 4
  %98 = sext i32 %97 to i64
  %99 = getelementptr inbounds [100 x i32], [100 x i32]* %8, i64 0, i64 %98
  %100 = load i32, i32* %99, align 4
  %101 = icmp slt i32 %96, %100
  br i1 %101, label %102, label %126

102:                                              ; preds = %92
  %103 = load i32, i32* %2, align 4
  %104 = sext i32 %103 to i64
  %105 = getelementptr inbounds [100 x i32], [100 x i32]* %7, i64 0, i64 %104
  %106 = load i32, i32* %105, align 4
  %107 = load i32, i32* %2, align 4
  %108 = sext i32 %107 to i64
  %109 = getelementptr inbounds [100 x i32], [100 x i32]* %8, i64 0, i64 %108
  %110 = load i32, i32* %109, align 4
  %111 = sub nsw i32 %106, %110
  %112 = add nsw i32 %111, 10
  %113 = load i32, i32* %2, align 4
  %114 = sext i32 %113 to i64
  %115 = getelementptr inbounds [100 x i32], [100 x i32]* %9, i64 0, i64 %114
  store i32 %112, i32* %115, align 4
  %116 = load i32, i32* %2, align 4
  %117 = add nsw i32 %116, 1
  %118 = sext i32 %117 to i64
  %119 = getelementptr inbounds [100 x i32], [100 x i32]* %7, i64 0, i64 %118
  %120 = load i32, i32* %119, align 4
  %121 = sub nsw i32 %120, 1
  %122 = load i32, i32* %2, align 4
  %123 = add nsw i32 %122, 1
  %124 = sext i32 %123 to i64
  %125 = getelementptr inbounds [100 x i32], [100 x i32]* %7, i64 0, i64 %124
  store i32 %121, i32* %125, align 4
  br label %139

126:                                              ; preds = %92
  %127 = load i32, i32* %2, align 4
  %128 = sext i32 %127 to i64
  %129 = getelementptr inbounds [100 x i32], [100 x i32]* %7, i64 0, i64 %128
  %130 = load i32, i32* %129, align 4
  %131 = load i32, i32* %2, align 4
  %132 = sext i32 %131 to i64
  %133 = getelementptr inbounds [100 x i32], [100 x i32]* %8, i64 0, i64 %132
  %134 = load i32, i32* %133, align 4
  %135 = sub nsw i32 %130, %134
  %136 = load i32, i32* %2, align 4
  %137 = sext i32 %136 to i64
  %138 = getelementptr inbounds [100 x i32], [100 x i32]* %9, i64 0, i64 %137
  store i32 %135, i32* %138, align 4
  br label %139

139:                                              ; preds = %126, %102
  br label %140

140:                                              ; preds = %139
  %141 = load i32, i32* %2, align 4
  %142 = add nsw i32 %141, 1
  store i32 %142, i32* %2, align 4
  br label %88

143:                                              ; preds = %88
  %144 = load i32, i32* %5, align 4
  %145 = sext i32 %144 to i64
  %146 = getelementptr inbounds [100 x i32], [100 x i32]* %9, i64 0, i64 %145
  %147 = load i32, i32* %146, align 4
  %148 = icmp eq i32 %147, 0
  br i1 %148, label %149, label %165

149:                                              ; preds = %143
  %150 = load i32, i32* %5, align 4
  %151 = sub nsw i32 %150, 1
  store i32 %151, i32* %2, align 4
  br label %152

152:                                              ; preds = %161, %149
  %153 = load i32, i32* %2, align 4
  %154 = icmp sgt i32 %153, 0
  br i1 %154, label %155, label %164

155:                                              ; preds = %152
  %156 = load i32, i32* %2, align 4
  %157 = sext i32 %156 to i64
  %158 = getelementptr inbounds [100 x i32], [100 x i32]* %9, i64 0, i64 %157
  %159 = load i32, i32* %158, align 4
  %160 = call i32 (i8*, ...) @printf(i8* getelementptr inbounds ([3 x i8], [3 x i8]* @.str, i64 0, i64 0), i32 %159)
  br label %161

161:                                              ; preds = %155
  %162 = load i32, i32* %2, align 4
  %163 = add nsw i32 %162, -1
  store i32 %163, i32* %2, align 4
  br label %152

164:                                              ; preds = %152
  br label %180

165:                                              ; preds = %143
  %166 = load i32, i32* %5, align 4
  store i32 %166, i32* %2, align 4
  br label %167

167:                                              ; preds = %176, %165
  %168 = load i32, i32* %2, align 4
  %169 = icmp sgt i32 %168, 0
  br i1 %169, label %170, label %179

170:                                              ; preds = %167
  %171 = load i32, i32* %2, align 4
  %172 = sext i32 %171 to i64
  %173 = getelementptr inbounds [100 x i32], [100 x i32]* %9, i64 0, i64 %172
  %174 = load i32, i32* %173, align 4
  %175 = call i32 (i8*, ...) @printf(i8* getelementptr inbounds ([3 x i8], [3 x i8]* @.str, i64 0, i64 0), i32 %174)
  br label %176

176:                                              ; preds = %170
  %177 = load i32, i32* %2, align 4
  %178 = add nsw i32 %177, -1
  store i32 %178, i32* %2, align 4
  br label %167

179:                                              ; preds = %167
  br label %180

180:                                              ; preds = %179, %164
  %181 = call i32 (i8*, ...) @printf(i8* getelementptr inbounds ([2 x i8], [2 x i8]* @.str.2, i64 0, i64 0))
  store i32 1, i32* %2, align 4
  br label %182

182:                                              ; preds = %189, %180
  %183 = load i32, i32* %2, align 4
  %184 = icmp sle i32 %183, 100
  br i1 %184, label %185, label %192

185:                                              ; preds = %182
  %186 = load i32, i32* %2, align 4
  %187 = sext i32 %186 to i64
  %188 = getelementptr inbounds [100 x i32], [100 x i32]* %8, i64 0, i64 %187
  store i32 0, i32* %188, align 4
  br label %189

189:                                              ; preds = %185
  %190 = load i32, i32* %2, align 4
  %191 = add nsw i32 %190, 1
  store i32 %191, i32* %2, align 4
  br label %182

192:                                              ; preds = %182
  br label %193

193:                                              ; preds = %192
  %194 = load i32, i32* %4, align 4
  %195 = add nsw i32 %194, 1
  store i32 %195, i32* %4, align 4
  br label %14

196:                                              ; preds = %14
  %197 = load i32, i32* %1, align 4
  ret i32 %197
}